target datalayout = "e-m:e-p270:32:32-p271:32:32-p272:64:64-i64:64-i128:128-f80:128-n8:16:32:64-S128"
target triple = "x86_64-pc-linux-gnu"

%struct._zend_executor_globals = type { %struct._zval_struct, %struct._zval_struct, [32 x ptr], ptr, ptr, %struct._zend_array, %struct._zend_array, ptr, i32, i8, %struct._zval_struct, i32, ptr, ptr, ptr, ptr, ptr, ptr, i64, ptr, ptr, i32, ptr, i32, i64, i32, i32, i32, i8, i8, %struct.zend_atomic_bool_s, %struct.zend_atomic_bool_s, ptr, i64, ptr, ptr, %struct._zend_array, %struct._zend_array, i32, i8, %struct._zval_struct, %struct._zval_struct, %struct._zend_stack, %struct._zend_stack, %struct._zend_stack, ptr, i32, i32, i64, ptr, ptr, ptr, %struct._zend_objects_store, %struct._zend_lazy_objects_store, ptr, ptr, ptr, [3 x %struct._zend_op], ptr, i8, i8, i64, i32, i32, ptr, [16 x %struct._HashTableIterator], ptr, %union._zend_function, %struct._zend_op, %struct._zend_array, i64, %struct.zend_get_gc_buffer, ptr, ptr, ptr, i64, i8, i32, ptr, ptr, i64, %struct._zend_call_stack, i64, i64, %struct._zend_strtod_state, [6 x ptr] }
%struct.zend_atomic_bool_s = type { i8 }
%struct._zval_struct = type { %union._zend_value, %union.anon, %union.anon.2 }
%union._zend_value = type { i64 }
%union.anon = type { i32 }
%union.anon.2 = type { i32 }
%struct._zend_stack = type { i32, i32, i32, ptr }
%struct._zend_objects_store = type { ptr, i32, i32, i32 }
%struct._zend_lazy_objects_store = type { %struct._zend_array }
%struct._HashTableIterator = type { ptr, i32, i32 }
%union._zend_function = type { %struct._zend_op_array }
%struct._zend_op_array = type { i8, [3 x i8], i32, ptr, ptr, ptr, i32, i32, ptr, ptr, ptr, ptr, i32, ptr, i32, i32, i32, ptr, ptr, ptr, ptr, ptr, i32, i32, ptr, ptr, ptr, i32, i32, i32, i32, ptr, ptr, [6 x ptr] }
%struct._zend_op = type { ptr, %union._znode_op, %union._znode_op, %union._znode_op, i32, i32, i8, i8, i8, i8 }
%union._znode_op = type { i32 }
%struct._zend_array = type { %struct._zend_refcounted_h, %union.anon.4, i32, %union.anon.6, i32, i32, i32, i32, i64, ptr }
%struct._zend_refcounted_h = type { i32, %union.anon.3 }
%union.anon.3 = type { i32 }
%union.anon.4 = type { i32 }
%union.anon.6 = type { ptr }
%struct.zend_get_gc_buffer = type { ptr, ptr, ptr }
%struct._zend_call_stack = type { ptr, i64 }
%struct._zend_strtod_state = type { [8 x ptr], ptr, ptr }
%struct._zend_phpdbg_globals = type { [11 x %struct._zend_array], %struct._zend_array, %struct._zend_array, ptr, ptr, %struct.phpdbg_frame_t, i32, ptr, %struct.phpdbg_lexer_data, ptr, %struct.sigaction, i32, i64, %struct.phpdbg_btree, %struct.phpdbg_btree, %struct._zend_array, %struct._zend_array, %struct._zend_array, %struct._zend_array, ptr, ptr, ptr, i8, ptr, ptr, ptr, i64, ptr, %struct._zval_struct, i32, i32, i8, i8, ptr, ptr, ptr, %struct._zend_array, ptr, ptr, ptr, [3 x %struct.anon.9], ptr, %struct.anon.10, i64, [2 x ptr], [3 x ptr], ptr, i8, ptr, ptr, [500 x i8], i32, %struct.phpdbg_signal_safe_mem, ptr, i64, ptr, i64 }
%struct.phpdbg_frame_t = type { i32, ptr, ptr }
%struct.phpdbg_lexer_data = type { i32, ptr, ptr, ptr, ptr, i32 }
%struct.sigaction = type { %union.anon.8, %struct.__sigset_t, i32, ptr }
%union.anon.8 = type { ptr }
%struct.__sigset_t = type { [16 x i64] }
%struct.phpdbg_btree = type { i64, i64, i8, ptr }
%struct.anon.9 = type { i32 }
%struct.anon.10 = type { i8, i32, i32, ptr, i32 }
%struct.phpdbg_signal_safe_mem = type { ptr, i8, ptr, ptr }
%struct._zend_execute_data = type { ptr, ptr, ptr, ptr, %struct._zval_struct, ptr, ptr, ptr, ptr }
%struct._phpdbg_oplog_list = type { ptr, %struct._phpdbg_oplog_entry }
%struct._phpdbg_oplog_entry = type { ptr, ptr, ptr, ptr, ptr, ptr }
%struct._zend_arena = type { ptr, ptr, ptr }

@executor_globals = external global %struct._zend_executor_globals, align 8
@phpdbg_globals = hidden global %struct._zend_phpdbg_globals zeroinitializer, align 8

; Function Attrs: alwaysinline nounwind uwtable
define internal ptr @zend_arena_create(i64 noundef %0) #6 {
  %2 = alloca i64, align 8
  %3 = alloca ptr, align 8
  store i64 %0, ptr %2, align 8, !tbaa !76
  call void @llvm.lifetime.start.p0(i64 8, ptr %3) #22
  %4 = load i64, ptr %2, align 8, !tbaa !76
  %5 = call i1 @llvm.is.constant.i64(i64 %4)
  br i1 %5, label %6, label %227

6:                                                ; preds = %1
  %7 = load i64, ptr %2, align 8, !tbaa !76
  %8 = icmp ule i64 %7, 8
  br i1 %8, label %9, label %11

9:                                                ; preds = %6
  %10 = call noalias ptr @_emalloc_8()
  br label %225

11:                                               ; preds = %6
  %12 = load i64, ptr %2, align 8, !tbaa !76
  %13 = icmp ule i64 %12, 16
  br i1 %13, label %14, label %16

14:                                               ; preds = %11
  %15 = call noalias ptr @_emalloc_16()
  br label %223

16:                                               ; preds = %11
  %17 = load i64, ptr %2, align 8, !tbaa !76
  %18 = icmp ule i64 %17, 24
  br i1 %18, label %19, label %21

19:                                               ; preds = %16
  %20 = call noalias ptr @_emalloc_24()
  br label %221

21:                                               ; preds = %16
  %22 = load i64, ptr %2, align 8, !tbaa !76
  %23 = icmp ule i64 %22, 32
  br i1 %23, label %24, label %26

24:                                               ; preds = %21
  %25 = call noalias ptr @_emalloc_32()
  br label %219

26:                                               ; preds = %21
  %27 = load i64, ptr %2, align 8, !tbaa !76
  %28 = icmp ule i64 %27, 40
  br i1 %28, label %29, label %31

29:                                               ; preds = %26
  %30 = call noalias ptr @_emalloc_40()
  br label %217

31:                                               ; preds = %26
  %32 = load i64, ptr %2, align 8, !tbaa !76
  %33 = icmp ule i64 %32, 48
  br i1 %33, label %34, label %36

34:                                               ; preds = %31
  %35 = call noalias ptr @_emalloc_48()
  br label %215

36:                                               ; preds = %31
  %37 = load i64, ptr %2, align 8, !tbaa !76
  %38 = icmp ule i64 %37, 56
  br i1 %38, label %39, label %41

39:                                               ; preds = %36
  %40 = call noalias ptr @_emalloc_56()
  br label %213

41:                                               ; preds = %36
  %42 = load i64, ptr %2, align 8, !tbaa !76
  %43 = icmp ule i64 %42, 64
  br i1 %43, label %44, label %46

44:                                               ; preds = %41
  %45 = call noalias ptr @_emalloc_64()
  br label %211

46:                                               ; preds = %41
  %47 = load i64, ptr %2, align 8, !tbaa !76
  %48 = icmp ule i64 %47, 80
  br i1 %48, label %49, label %51

49:                                               ; preds = %46
  %50 = call noalias ptr @_emalloc_80()
  br label %209

51:                                               ; preds = %46
  %52 = load i64, ptr %2, align 8, !tbaa !76
  %53 = icmp ule i64 %52, 96
  br i1 %53, label %54, label %56

54:                                               ; preds = %51
  %55 = call noalias ptr @_emalloc_96()
  br label %207

56:                                               ; preds = %51
  %57 = load i64, ptr %2, align 8, !tbaa !76
  %58 = icmp ule i64 %57, 112
  br i1 %58, label %59, label %61

59:                                               ; preds = %56
  %60 = call noalias ptr @_emalloc_112()
  br label %205

61:                                               ; preds = %56
  %62 = load i64, ptr %2, align 8, !tbaa !76
  %63 = icmp ule i64 %62, 128
  br i1 %63, label %64, label %66

64:                                               ; preds = %61
  %65 = call noalias ptr @_emalloc_128()
  br label %203

66:                                               ; preds = %61
  %67 = load i64, ptr %2, align 8, !tbaa !76
  %68 = icmp ule i64 %67, 160
  br i1 %68, label %69, label %71

69:                                               ; preds = %66
  %70 = call noalias ptr @_emalloc_160()
  br label %201

71:                                               ; preds = %66
  %72 = load i64, ptr %2, align 8, !tbaa !76
  %73 = icmp ule i64 %72, 192
  br i1 %73, label %74, label %76

74:                                               ; preds = %71
  %75 = call noalias ptr @_emalloc_192()
  br label %199

76:                                               ; preds = %71
  %77 = load i64, ptr %2, align 8, !tbaa !76
  %78 = icmp ule i64 %77, 224
  br i1 %78, label %79, label %81

79:                                               ; preds = %76
  %80 = call noalias ptr @_emalloc_224()
  br label %197

81:                                               ; preds = %76
  %82 = load i64, ptr %2, align 8, !tbaa !76
  %83 = icmp ule i64 %82, 256
  br i1 %83, label %84, label %86

84:                                               ; preds = %81
  %85 = call noalias ptr @_emalloc_256()
  br label %195

86:                                               ; preds = %81
  %87 = load i64, ptr %2, align 8, !tbaa !76
  %88 = icmp ule i64 %87, 320
  br i1 %88, label %89, label %91

89:                                               ; preds = %86
  %90 = call noalias ptr @_emalloc_320()
  br label %193

91:                                               ; preds = %86
  %92 = load i64, ptr %2, align 8, !tbaa !76
  %93 = icmp ule i64 %92, 384
  br i1 %93, label %94, label %96

94:                                               ; preds = %91
  %95 = call noalias ptr @_emalloc_384()
  br label %191

96:                                               ; preds = %91
  %97 = load i64, ptr %2, align 8, !tbaa !76
  %98 = icmp ule i64 %97, 448
  br i1 %98, label %99, label %101

99:                                               ; preds = %96
  %100 = call noalias ptr @_emalloc_448()
  br label %189

101:                                              ; preds = %96
  %102 = load i64, ptr %2, align 8, !tbaa !76
  %103 = icmp ule i64 %102, 512
  br i1 %103, label %104, label %106

104:                                              ; preds = %101
  %105 = call noalias ptr @_emalloc_512()
  br label %187

106:                                              ; preds = %101
  %107 = load i64, ptr %2, align 8, !tbaa !76
  %108 = icmp ule i64 %107, 640
  br i1 %108, label %109, label %111

109:                                              ; preds = %106
  %110 = call noalias ptr @_emalloc_640()
  br label %185

111:                                              ; preds = %106
  %112 = load i64, ptr %2, align 8, !tbaa !76
  %113 = icmp ule i64 %112, 768
  br i1 %113, label %114, label %116

114:                                              ; preds = %111
  %115 = call noalias ptr @_emalloc_768()
  br label %183

116:                                              ; preds = %111
  %117 = load i64, ptr %2, align 8, !tbaa !76
  %118 = icmp ule i64 %117, 896
  br i1 %118, label %119, label %121

119:                                              ; preds = %116
  %120 = call noalias ptr @_emalloc_896()
  br label %181

121:                                              ; preds = %116
  %122 = load i64, ptr %2, align 8, !tbaa !76
  %123 = icmp ule i64 %122, 1024
  br i1 %123, label %124, label %126

124:                                              ; preds = %121
  %125 = call noalias ptr @_emalloc_1024()
  br label %179

126:                                              ; preds = %121
  %127 = load i64, ptr %2, align 8, !tbaa !76
  %128 = icmp ule i64 %127, 1280
  br i1 %128, label %129, label %131

129:                                              ; preds = %126
  %130 = call noalias ptr @_emalloc_1280()
  br label %177

131:                                              ; preds = %126
  %132 = load i64, ptr %2, align 8, !tbaa !76
  %133 = icmp ule i64 %132, 1536
  br i1 %133, label %134, label %136

134:                                              ; preds = %131
  %135 = call noalias ptr @_emalloc_1536()
  br label %175

136:                                              ; preds = %131
  %137 = load i64, ptr %2, align 8, !tbaa !76
  %138 = icmp ule i64 %137, 1792
  br i1 %138, label %139, label %141

139:                                              ; preds = %136
  %140 = call noalias ptr @_emalloc_1792()
  br label %173

141:                                              ; preds = %136
  %142 = load i64, ptr %2, align 8, !tbaa !76
  %143 = icmp ule i64 %142, 2048
  br i1 %143, label %144, label %146

144:                                              ; preds = %141
  %145 = call noalias ptr @_emalloc_2048()
  br label %171

146:                                              ; preds = %141
  %147 = load i64, ptr %2, align 8, !tbaa !76
  %148 = icmp ule i64 %147, 2560
  br i1 %148, label %149, label %151

149:                                              ; preds = %146
  %150 = call noalias ptr @_emalloc_2560()
  br label %169

151:                                              ; preds = %146
  %152 = load i64, ptr %2, align 8, !tbaa !76
  %153 = icmp ule i64 %152, 3072
  br i1 %153, label %154, label %156

154:                                              ; preds = %151
  %155 = call noalias ptr @_emalloc_3072()
  br label %167

156:                                              ; preds = %151
  %157 = load i64, ptr %2, align 8, !tbaa !76
  %158 = icmp ule i64 %157, 2093056
  br i1 %158, label %159, label %162

159:                                              ; preds = %156
  %160 = load i64, ptr %2, align 8, !tbaa !76
  %161 = call noalias ptr @_emalloc_large(i64 noundef %160) #23
  br label %165

162:                                              ; preds = %156
  %163 = load i64, ptr %2, align 8, !tbaa !76
  %164 = call noalias ptr @_emalloc_huge(i64 noundef %163) #23
  br label %165

165:                                              ; preds = %162, %159
  %166 = phi ptr [ %161, %159 ], [ %164, %162 ]
  br label %167

167:                                              ; preds = %165, %154
  %168 = phi ptr [ %155, %154 ], [ %166, %165 ]
  br label %169

169:                                              ; preds = %167, %149
  %170 = phi ptr [ %150, %149 ], [ %168, %167 ]
  br label %171

171:                                              ; preds = %169, %144
  %172 = phi ptr [ %145, %144 ], [ %170, %169 ]
  br label %173

173:                                              ; preds = %171, %139
  %174 = phi ptr [ %140, %139 ], [ %172, %171 ]
  br label %175

175:                                              ; preds = %173, %134
  %176 = phi ptr [ %135, %134 ], [ %174, %173 ]
  br label %177

177:                                              ; preds = %175, %129
  %178 = phi ptr [ %130, %129 ], [ %176, %175 ]
  br label %179

179:                                              ; preds = %177, %124
  %180 = phi ptr [ %125, %124 ], [ %178, %177 ]
  br label %181

181:                                              ; preds = %179, %119
  %182 = phi ptr [ %120, %119 ], [ %180, %179 ]
  br label %183

183:                                              ; preds = %181, %114
  %184 = phi ptr [ %115, %114 ], [ %182, %181 ]
  br label %185

185:                                              ; preds = %183, %109
  %186 = phi ptr [ %110, %109 ], [ %184, %183 ]
  br label %187

187:                                              ; preds = %185, %104
  %188 = phi ptr [ %105, %104 ], [ %186, %185 ]
  br label %189

189:                                              ; preds = %187, %99
  %190 = phi ptr [ %100, %99 ], [ %188, %187 ]
  br label %191

191:                                              ; preds = %189, %94
  %192 = phi ptr [ %95, %94 ], [ %190, %189 ]
  br label %193

193:                                              ; preds = %191, %89
  %194 = phi ptr [ %90, %89 ], [ %192, %191 ]
  br label %195

195:                                              ; preds = %193, %84
  %196 = phi ptr [ %85, %84 ], [ %194, %193 ]
  br label %197

197:                                              ; preds = %195, %79
  %198 = phi ptr [ %80, %79 ], [ %196, %195 ]
  br label %199

199:                                              ; preds = %197, %74
  %200 = phi ptr [ %75, %74 ], [ %198, %197 ]
  br label %201

201:                                              ; preds = %199, %69
  %202 = phi ptr [ %70, %69 ], [ %200, %199 ]
  br label %203

203:                                              ; preds = %201, %64
  %204 = phi ptr [ %65, %64 ], [ %202, %201 ]
  br label %205

205:                                              ; preds = %203, %59
  %206 = phi ptr [ %60, %59 ], [ %204, %203 ]
  br label %207

207:                                              ; preds = %205, %54
  %208 = phi ptr [ %55, %54 ], [ %206, %205 ]
  br label %209

209:                                              ; preds = %207, %49
  %210 = phi ptr [ %50, %49 ], [ %208, %207 ]
  br label %211

211:                                              ; preds = %209, %44
  %212 = phi ptr [ %45, %44 ], [ %210, %209 ]
  br label %213

213:                                              ; preds = %211, %39
  %214 = phi ptr [ %40, %39 ], [ %212, %211 ]
  br label %215

215:                                              ; preds = %213, %34
  %216 = phi ptr [ %35, %34 ], [ %214, %213 ]
  br label %217

217:                                              ; preds = %215, %29
  %218 = phi ptr [ %30, %29 ], [ %216, %215 ]
  br label %219

219:                                              ; preds = %217, %24
  %220 = phi ptr [ %25, %24 ], [ %218, %217 ]
  br label %221

221:                                              ; preds = %219, %19
  %222 = phi ptr [ %20, %19 ], [ %220, %219 ]
  br label %223

223:                                              ; preds = %221, %14
  %224 = phi ptr [ %15, %14 ], [ %222, %221 ]
  br label %225

225:                                              ; preds = %223, %9
  %226 = phi ptr [ %10, %9 ], [ %224, %223 ]
  br label %230

227:                                              ; preds = %1
  %228 = load i64, ptr %2, align 8, !tbaa !76
  %229 = call noalias ptr @_emalloc(i64 noundef %228) #23
  br label %230

230:                                              ; preds = %227, %225
  %231 = phi ptr [ %226, %225 ], [ %229, %227 ]
  store ptr %231, ptr %3, align 8, !tbaa !91
  %232 = load ptr, ptr %3, align 8, !tbaa !91
  %233 = getelementptr inbounds nuw i8, ptr %232, i64 24
  %234 = load ptr, ptr %3, align 8, !tbaa !91
  %235 = getelementptr inbounds nuw %struct._zend_arena, ptr %234, i32 0, i32 0
  store ptr %233, ptr %235, align 8, !tbaa !92
  %236 = load ptr, ptr %3, align 8, !tbaa !91
  %237 = load i64, ptr %2, align 8, !tbaa !76
  %238 = getelementptr inbounds nuw i8, ptr %236, i64 %237
  %239 = load ptr, ptr %3, align 8, !tbaa !91
  %240 = getelementptr inbounds nuw %struct._zend_arena, ptr %239, i32 0, i32 1
  store ptr %238, ptr %240, align 8, !tbaa !94
  %241 = load ptr, ptr %3, align 8, !tbaa !91
  %242 = getelementptr inbounds nuw %struct._zend_arena, ptr %241, i32 0, i32 2
  store ptr null, ptr %242, align 8, !tbaa !95
  %243 = load ptr, ptr %3, align 8, !tbaa !91
  call void @llvm.lifetime.end.p0(i64 8, ptr %3) #22
  ret ptr %243
}

; Function Attrs: nounwind uwtable
define hidden void @zif_phpdbg_start_oplog(ptr noundef %0, ptr noundef %1) #0 {
  %3 = alloca ptr, align 8
  %4 = alloca ptr, align 8
  %5 = alloca ptr, align 8
  %6 = alloca i32, align 4
  store ptr %0, ptr %3, align 8, !tbaa !4
  store ptr %1, ptr %4, align 8, !tbaa !9
  call void @llvm.lifetime.start.p0(i64 8, ptr %5) #22
  %7 = load ptr, ptr %3, align 8, !tbaa !4
  %8 = getelementptr inbounds nuw %struct._zend_execute_data, ptr %7, i32 0, i32 4
  %9 = getelementptr inbounds nuw %struct._zval_struct, ptr %8, i32 0, i32 2
  %10 = load i32, ptr %9, align 4, !tbaa !11
  %11 = icmp eq i32 %10, 0
  %12 = xor i1 %11, true
  %13 = xor i1 %12, true
  %14 = zext i1 %13 to i32
  %15 = sext i32 %14 to i64
  %16 = call i64 @llvm.expect.i64(i64 %15, i64 1)
  %17 = icmp ne i64 %16, 0
  br i1 %17, label %18, label %19

18:                                               ; preds = %2
  br label %20

19:                                               ; preds = %2
  call void @zend_wrong_parameters_none_error()
  br label %20

20:                                               ; preds = %19, %18
  %21 = phi i32 [ 0, %18 ], [ -1, %19 ]
  %22 = icmp eq i32 %21, -1
  br i1 %22, label %23, label %29

23:                                               ; preds = %20
  br label %24

24:                                               ; preds = %23
  %25 = load ptr, ptr getelementptr inbounds nuw (%struct._zend_executor_globals, ptr @executor_globals, i32 0, i32 54), align 8, !tbaa !12
  %26 = icmp ne ptr %25, null
  call void @llvm.assume(i1 %26)
  store i32 1, ptr %6, align 4
  br label %44

27:                                               ; No predecessors!
  br label %28

28:                                               ; preds = %27
  br label %29

29:                                               ; preds = %28, %20
  %30 = load ptr, ptr getelementptr inbounds nuw (%struct._zend_phpdbg_globals, ptr @phpdbg_globals, i32 0, i32 38), align 8, !tbaa !83
  store ptr %30, ptr %5, align 8, !tbaa !84
  %31 = load ptr, ptr %5, align 8, !tbaa !84
  %32 = icmp ne ptr %31, null
  br i1 %32, label %35, label %33

33:                                               ; preds = %29
  %34 = call ptr @zend_arena_create(i64 noundef 65536)
  store ptr %34, ptr getelementptr inbounds nuw (%struct._zend_phpdbg_globals, ptr @phpdbg_globals, i32 0, i32 37), align 8, !tbaa !85
  br label %35

35:                                               ; preds = %33, %29
  %36 = call noalias ptr @_emalloc_56()
  store ptr %36, ptr getelementptr inbounds nuw (%struct._zend_phpdbg_globals, ptr @phpdbg_globals, i32 0, i32 38), align 8, !tbaa !83
  %37 = load ptr, ptr %5, align 8, !tbaa !84
  %38 = load ptr, ptr getelementptr inbounds nuw (%struct._zend_phpdbg_globals, ptr @phpdbg_globals, i32 0, i32 38), align 8, !tbaa !83
  %39 = getelementptr inbounds nuw %struct._phpdbg_oplog_list, ptr %38, i32 0, i32 0
  store ptr %37, ptr %39, align 8, !tbaa !86
  %40 = load ptr, ptr getelementptr inbounds nuw (%struct._zend_phpdbg_globals, ptr @phpdbg_globals, i32 0, i32 38), align 8, !tbaa !83
  %41 = getelementptr inbounds nuw %struct._phpdbg_oplog_list, ptr %40, i32 0, i32 1
  store ptr %41, ptr getelementptr inbounds nuw (%struct._zend_phpdbg_globals, ptr @phpdbg_globals, i32 0, i32 39), align 8, !tbaa !89
  %42 = load ptr, ptr getelementptr inbounds nuw (%struct._zend_phpdbg_globals, ptr @phpdbg_globals, i32 0, i32 39), align 8, !tbaa !89
  %43 = getelementptr inbounds nuw %struct._phpdbg_oplog_entry, ptr %42, i32 0, i32 0
  store ptr null, ptr %43, align 8, !tbaa !90
  store i32 0, ptr %6, align 4
  br label %44

44:                                               ; preds = %35, %24
  call void @llvm.lifetime.end.p0(i64 8, ptr %5) #22
  %45 = load i32, ptr %6, align 4
  switch i32 %45, label %47 [
    i32 0, label %46
    i32 1, label %46
  ]

46:                                               ; preds = %44, %44
  ret void

47:                                               ; preds = %44
  unreachable
}