; Function Attrs: nounwind uwtable
define hidden void @zif_phpdbg_start_oplog(ptr noundef readonly captures(none) %0, ptr readnone captures(none) %1) #0 {
  %3 = getelementptr inbounds nuw i8, ptr %0, i64 44
  %4 = load i32, ptr %3, align 4, !tbaa !4
  %.not = icmp eq i32 %4, 0
  br i1 %.not, label %.critedge, label %5, !prof !72

5:                                                ; preds = %2
  tail call void @zend_wrong_parameters_none_error() #27
  %6 = load ptr, ptr getelementptr inbounds nuw (i8, ptr @executor_globals, i64 960), align 8, !tbaa !7
  %7 = icmp ne ptr %6, null
  tail call void @llvm.assume(i1 %7)
  br label %18

.critedge:                                        ; preds = %2
  %8 = load ptr, ptr getelementptr inbounds nuw (i8, ptr @phpdbg_globals, i64 1488), align 8, !tbaa !80
  %.not3 = icmp eq ptr %8, null
  br i1 %.not3, label %9, label %15

9:                                                ; preds = %.critedge
  %10 = tail call noalias dereferenceable_or_null(65536) ptr @_emalloc_large(i64 noundef 65536) #28
  %11 = getelementptr inbounds nuw i8, ptr %10, i64 24
  store ptr %11, ptr %10, align 8, !tbaa !81
  %12 = getelementptr inbounds nuw i8, ptr %10, i64 65536
  %13 = getelementptr inbounds nuw i8, ptr %10, i64 8
  store ptr %12, ptr %13, align 8, !tbaa !83
  %14 = getelementptr inbounds nuw i8, ptr %10, i64 16
  store ptr null, ptr %14, align 8, !tbaa !84
  store ptr %10, ptr getelementptr inbounds nuw (i8, ptr @phpdbg_globals, i64 1480), align 8, !tbaa !85
  br label %15

15:                                               ; preds = %9, %.critedge
  %16 = tail call noalias ptr @_emalloc_56() #27
  store ptr %16, ptr getelementptr inbounds nuw (i8, ptr @phpdbg_globals, i64 1488), align 8, !tbaa !80
  store ptr %8, ptr %16, align 8, !tbaa !86
  %17 = getelementptr inbounds nuw i8, ptr %16, i64 8
  store ptr %17, ptr getelementptr inbounds nuw (i8, ptr @phpdbg_globals, i64 1496), align 8, !tbaa !89
  store ptr null, ptr %17, align 8, !tbaa !90
  br label %18

18:                                               ; preds = %15, %5
  ret void
}